target datalayout = "e-m:e-p270:32:32-p271:32:32-p272:64:64-i64:64-i128:128-f80:128-n8:16:32:64-S128"
target triple = "x86_64-pc-linux-gnu"

%"struct.rocksdb::UniqueIdPtr" = type <{ ptr, i8, [7 x i8] }>

; Function Attrs: mustprogress uwtable
define void @_ZN7rocksdb26InternalUniqueIdToExternalENS_11UniqueIdPtrE(ptr %0, i8 %1) #0 {
  %3 = alloca %"struct.rocksdb::UniqueIdPtr", align 8
  %4 = alloca i64, align 8
  %5 = alloca i64, align 8
  %6 = getelementptr inbounds nuw { ptr, i8 }, ptr %3, i32 0, i32 0
  store ptr %0, ptr %6, align 8
  %7 = getelementptr inbounds nuw { ptr, i8 }, ptr %3, i32 0, i32 1
  store i8 %1, ptr %7, align 8
  call void @llvm.lifetime.start.p0(i64 8, ptr %4) #15
  call void @llvm.lifetime.start.p0(i64 8, ptr %5) #15
  %8 = getelementptr inbounds nuw %"struct.rocksdb::UniqueIdPtr", ptr %3, i32 0, i32 0
  %9 = load ptr, ptr %8, align 8, !tbaa !36
  %10 = getelementptr inbounds i64, ptr %9, i64 1
  %11 = load i64, ptr %10, align 8, !tbaa !4
  %12 = add i64 %11, -1055665268803122216
  %13 = getelementptr inbounds nuw %"struct.rocksdb::UniqueIdPtr", ptr %3, i32 0, i32 0
  %14 = load ptr, ptr %13, align 8, !tbaa !36
  %15 = getelementptr inbounds i64, ptr %14, i64 0
  %16 = load i64, ptr %15, align 8, !tbaa !4
  %17 = add i64 %16, 6417269962128484497
  call void @_ZN7rocksdb17BijectiveHash2x64EmmPmS0_(i64 noundef %12, i64 noundef %17, ptr noundef %4, ptr noundef %5)
  %18 = load i64, ptr %5, align 8, !tbaa !4
  %19 = getelementptr inbounds nuw %"struct.rocksdb::UniqueIdPtr", ptr %3, i32 0, i32 0
  %20 = load ptr, ptr %19, align 8, !tbaa !36
  %21 = getelementptr inbounds i64, ptr %20, i64 0
  store i64 %18, ptr %21, align 8, !tbaa !4
  %22 = load i64, ptr %4, align 8, !tbaa !4
  %23 = getelementptr inbounds nuw %"struct.rocksdb::UniqueIdPtr", ptr %3, i32 0, i32 0
  %24 = load ptr, ptr %23, align 8, !tbaa !36
  %25 = getelementptr inbounds i64, ptr %24, i64 1
  store i64 %22, ptr %25, align 8, !tbaa !4
  %26 = getelementptr inbounds nuw %"struct.rocksdb::UniqueIdPtr", ptr %3, i32 0, i32 1
  %27 = load i8, ptr %26, align 8, !tbaa !38, !range !21, !noundef !22
  %28 = trunc i8 %27 to i1
  br i1 %28, label %29, label %38

29:                                               ; preds = %2
  %30 = load i64, ptr %5, align 8, !tbaa !4
  %31 = load i64, ptr %4, align 8, !tbaa !4
  %32 = add i64 %30, %31
  %33 = getelementptr inbounds nuw %"struct.rocksdb::UniqueIdPtr", ptr %3, i32 0, i32 0
  %34 = load ptr, ptr %33, align 8, !tbaa !36
  %35 = getelementptr inbounds i64, ptr %34, i64 2
  %36 = load i64, ptr %35, align 8, !tbaa !4
  %37 = add i64 %36, %32
  store i64 %37, ptr %35, align 8, !tbaa !4
  br label %38

38:                                               ; preds = %29, %2
  call void @llvm.lifetime.end.p0(i64 8, ptr %5) #15
  call void @llvm.lifetime.end.p0(i64 8, ptr %4) #15
  ret void
}