; Function Attrs: mustprogress uwtable
define void @_ZN7rocksdb26InternalUniqueIdToExternalENS_11UniqueIdPtrE(ptr captures(none) %0, i8 %1) local_unnamed_addr #0 {
  %3 = alloca i64, align 8
  %4 = alloca i64, align 8
  call void @llvm.lifetime.start.p0(i64 8, ptr nonnull %3) #10
  call void @llvm.lifetime.start.p0(i64 8, ptr nonnull %4) #10
  %5 = getelementptr inbounds nuw i8, ptr %0, i64 8
  %6 = load i64, ptr %5, align 8, !tbaa !20
  %7 = add i64 %6, -1055665268803122216
  %8 = load i64, ptr %0, align 8, !tbaa !20
  %9 = add i64 %8, 6417269962128484497
  call void @_ZN7rocksdb17BijectiveHash2x64EmmPmS0_(i64 noundef %7, i64 noundef %9, ptr noundef nonnull %3, ptr noundef nonnull %4)
  %10 = load i64, ptr %4, align 8, !tbaa !20
  store i64 %10, ptr %0, align 8, !tbaa !20
  %11 = load i64, ptr %3, align 8, !tbaa !20
  store i64 %11, ptr %5, align 8, !tbaa !20
  %12 = trunc i8 %1 to i1
  br i1 %12, label %13, label %18

13:                                               ; preds = %2
  %14 = add i64 %11, %10
  %15 = getelementptr inbounds nuw i8, ptr %0, i64 16
  %16 = load i64, ptr %15, align 8, !tbaa !20
  %17 = add i64 %14, %16
  store i64 %17, ptr %15, align 8, !tbaa !20
  br label %18

18:                                               ; preds = %13, %2
  call void @llvm.lifetime.end.p0(i64 8, ptr nonnull %4) #10
  call void @llvm.lifetime.end.p0(i64 8, ptr nonnull %3) #10
  ret void
}